target datalayout = "e-m:e-p270:32:32-p271:32:32-p272:64:64-i64:64-i128:128-f80:128-n8:16:32:64-S128"
target triple = "x86_64-pc-linux-gnu"

%struct._image_pos = type { float, float, float, float }
%struct._image_box = type { i32, i32, i32, i32, i32, i32, i32, i32, i32, i32, %struct._image_pos, %struct._image_pos, %struct._image_pos, ptr }
%struct.dt_images_box = type { i32, i32, i32, [20 x %struct._image_box], float, float, float, float, %struct.dt_screen_pos }
%struct.dt_screen_pos = type { %struct._image_pos, %struct._image_pos, i32 }

; Function Attrs: nounwind uwtable
define void @_clear_pos(ptr noundef %0) #0 {
  %2 = alloca ptr, align 8
  store ptr %0, ptr %2, align 8, !tbaa !6
  %3 = load ptr, ptr %2, align 8, !tbaa !6
  %4 = getelementptr inbounds nuw %struct._image_pos, ptr %3, i32 0, i32 3
  store float 0.000000e+00, ptr %4, align 4, !tbaa !11
  %5 = load ptr, ptr %2, align 8, !tbaa !6
  %6 = getelementptr inbounds nuw %struct._image_pos, ptr %5, i32 0, i32 2
  store float 0.000000e+00, ptr %6, align 4, !tbaa !14
  %7 = load ptr, ptr %2, align 8, !tbaa !6
  %8 = getelementptr inbounds nuw %struct._image_pos, ptr %7, i32 0, i32 1
  store float 0.000000e+00, ptr %8, align 4, !tbaa !15
  %9 = load ptr, ptr %2, align 8, !tbaa !6
  %10 = getelementptr inbounds nuw %struct._image_pos, ptr %9, i32 0, i32 0
  store float 0.000000e+00, ptr %10, align 4, !tbaa !16
  ret void
}

; Function Attrs: nounwind uwtable
define void @dt_printing_clear_box(ptr noundef %0) #0 {
  %2 = alloca ptr, align 8
  store ptr %0, ptr %2, align 8, !tbaa !17
  %3 = load ptr, ptr %2, align 8, !tbaa !17
  %4 = getelementptr inbounds nuw %struct._image_box, ptr %3, i32 0, i32 0
  store i32 0, ptr %4, align 8, !tbaa !19
  %5 = load ptr, ptr %2, align 8, !tbaa !17
  %6 = getelementptr inbounds nuw %struct._image_box, ptr %5, i32 0, i32 2
  store i32 0, ptr %6, align 8, !tbaa !23
  %7 = load ptr, ptr %2, align 8, !tbaa !17
  %8 = getelementptr inbounds nuw %struct._image_box, ptr %7, i32 0, i32 1
  store i32 0, ptr %8, align 4, !tbaa !24
  %9 = load ptr, ptr %2, align 8, !tbaa !17
  %10 = getelementptr inbounds nuw %struct._image_box, ptr %9, i32 0, i32 4
  store i32 0, ptr %10, align 8, !tbaa !25
  %11 = load ptr, ptr %2, align 8, !tbaa !17
  %12 = getelementptr inbounds nuw %struct._image_box, ptr %11, i32 0, i32 3
  store i32 0, ptr %12, align 4, !tbaa !26
  %13 = load ptr, ptr %2, align 8, !tbaa !17
  %14 = getelementptr inbounds nuw %struct._image_box, ptr %13, i32 0, i32 6
  store i32 0, ptr %14, align 8, !tbaa !27
  %15 = load ptr, ptr %2, align 8, !tbaa !17
  %16 = getelementptr inbounds nuw %struct._image_box, ptr %15, i32 0, i32 5
  store i32 0, ptr %16, align 4, !tbaa !28
  %17 = load ptr, ptr %2, align 8, !tbaa !17
  %18 = getelementptr inbounds nuw %struct._image_box, ptr %17, i32 0, i32 8
  store i32 0, ptr %18, align 8, !tbaa !29
  %19 = load ptr, ptr %2, align 8, !tbaa !17
  %20 = getelementptr inbounds nuw %struct._image_box, ptr %19, i32 0, i32 7
  store i32 0, ptr %20, align 4, !tbaa !30
  %21 = load ptr, ptr %2, align 8, !tbaa !17
  %22 = getelementptr inbounds nuw %struct._image_box, ptr %21, i32 0, i32 9
  store i32 4, ptr %22, align 4, !tbaa !31
  %23 = load ptr, ptr %2, align 8, !tbaa !17
  %24 = getelementptr inbounds nuw %struct._image_box, ptr %23, i32 0, i32 13
  store ptr null, ptr %24, align 8, !tbaa !32
  %25 = load ptr, ptr %2, align 8, !tbaa !17
  %26 = getelementptr inbounds nuw %struct._image_box, ptr %25, i32 0, i32 11
  call void @_clear_pos(ptr noundef %26)
  %27 = load ptr, ptr %2, align 8, !tbaa !17
  %28 = getelementptr inbounds nuw %struct._image_box, ptr %27, i32 0, i32 10
  call void @_clear_pos(ptr noundef %28)
  %29 = load ptr, ptr %2, align 8, !tbaa !17
  %30 = getelementptr inbounds nuw %struct._image_box, ptr %29, i32 0, i32 12
  call void @_clear_pos(ptr noundef %30)
  ret void
}

; Function Attrs: nounwind uwtable
define void @dt_printing_clear_boxes(ptr noundef %0) #0 {
  %2 = alloca ptr, align 8
  %3 = alloca i32, align 4
  store ptr %0, ptr %2, align 8, !tbaa !33
  call void @llvm.lifetime.start.p0(i64 4, ptr %3) #5
  store i32 0, ptr %3, align 4, !tbaa !35
  br label %4

4:                                                ; preds = %14, %1
  %5 = load i32, ptr %3, align 4, !tbaa !35
  %6 = icmp slt i32 %5, 20
  br i1 %6, label %8, label %7

7:                                                ; preds = %4
  call void @llvm.lifetime.end.p0(i64 4, ptr %3) #5
  br label %17

8:                                                ; preds = %4
  %9 = load ptr, ptr %2, align 8, !tbaa !33
  %10 = getelementptr inbounds nuw %struct.dt_images_box, ptr %9, i32 0, i32 3
  %11 = load i32, ptr %3, align 4, !tbaa !35
  %12 = sext i32 %11 to i64
  %13 = getelementptr inbounds [20 x %struct._image_box], ptr %10, i64 0, i64 %12
  call void @dt_printing_clear_box(ptr noundef %13)
  br label %14

14:                                               ; preds = %8
  %15 = load i32, ptr %3, align 4, !tbaa !35
  %16 = add nsw i32 %15, 1
  store i32 %16, ptr %3, align 4, !tbaa !35
  br label %4

17:                                               ; preds = %7
  %18 = load ptr, ptr %2, align 8, !tbaa !33
  %19 = getelementptr inbounds nuw %struct.dt_images_box, ptr %18, i32 0, i32 8
  %20 = getelementptr inbounds nuw %struct.dt_screen_pos, ptr %19, i32 0, i32 0
  call void @_clear_pos(ptr noundef %20)
  %21 = load ptr, ptr %2, align 8, !tbaa !33
  %22 = getelementptr inbounds nuw %struct.dt_images_box, ptr %21, i32 0, i32 8
  %23 = getelementptr inbounds nuw %struct.dt_screen_pos, ptr %22, i32 0, i32 1
  call void @_clear_pos(ptr noundef %23)
  %24 = load ptr, ptr %2, align 8, !tbaa !33
  %25 = getelementptr inbounds nuw %struct.dt_images_box, ptr %24, i32 0, i32 2
  store i32 0, ptr %25, align 8, !tbaa !36
  %26 = load ptr, ptr %2, align 8, !tbaa !33
  %27 = getelementptr inbounds nuw %struct.dt_images_box, ptr %26, i32 0, i32 1
  store i32 -1, ptr %27, align 4, !tbaa !39
  %28 = load ptr, ptr %2, align 8, !tbaa !33
  %29 = getelementptr inbounds nuw %struct.dt_images_box, ptr %28, i32 0, i32 5
  store float 0.000000e+00, ptr %29, align 4, !tbaa !40
  %30 = load ptr, ptr %2, align 8, !tbaa !33
  %31 = getelementptr inbounds nuw %struct.dt_images_box, ptr %30, i32 0, i32 4
  store float 0.000000e+00, ptr %31, align 8, !tbaa !41
  %32 = load ptr, ptr %2, align 8, !tbaa !33
  %33 = getelementptr inbounds nuw %struct.dt_images_box, ptr %32, i32 0, i32 7
  store float 0.000000e+00, ptr %33, align 4, !tbaa !42
  %34 = load ptr, ptr %2, align 8, !tbaa !33
  %35 = getelementptr inbounds nuw %struct.dt_images_box, ptr %34, i32 0, i32 6
  store float 0.000000e+00, ptr %35, align 8, !tbaa !43
  %36 = load ptr, ptr %2, align 8, !tbaa !33
  %37 = getelementptr inbounds nuw %struct.dt_images_box, ptr %36, i32 0, i32 0
  store i32 -1, ptr %37, align 8, !tbaa !44
  ret void
}